; Function Attrs: null_pointer_is_valid sspstrong uwtable
define hidden noundef zeroext i16 @de_serv_cat(ptr noundef %0, ptr noundef %1, ptr readnone captures(none) %2, i32 noundef %3, i32 noundef %4, ptr readnone captures(none) %5, i32 %6) #1 {
  %8 = load i32, ptr @hf_gsm_a_spare_bits, align 4
  %9 = shl i32 %3, 3
  %10 = tail call ptr @proto_tree_add_bits_item(ptr noundef %1, i32 noundef %8, ptr noundef %0, i32 noundef %9, i32 noundef 1, i32 noundef 0)
  %11 = load i32, ptr @hf_gsm_a_dtap_serv_cat_b7, align 4
  %12 = tail call ptr @proto_tree_add_item(ptr noundef %1, i32 noundef %11, ptr noundef %0, i32 noundef %3, i32 noundef 1, i32 noundef 0)
  %13 = load i32, ptr @hf_gsm_a_dtap_serv_cat_b6, align 4
  %14 = tail call ptr @proto_tree_add_item(ptr noundef %1, i32 noundef %13, ptr noundef %0, i32 noundef %3, i32 noundef 1, i32 noundef 0)
  %15 = load i32, ptr @hf_gsm_a_dtap_serv_cat_b5, align 4
  %16 = tail call ptr @proto_tree_add_item(ptr noundef %1, i32 noundef %15, ptr noundef %0, i32 noundef %3, i32 noundef 1, i32 noundef 0)
  %17 = load i32, ptr @hf_gsm_a_dtap_serv_cat_b4, align 4
  %18 = tail call ptr @proto_tree_add_item(ptr noundef %1, i32 noundef %17, ptr noundef %0, i32 noundef %3, i32 noundef 1, i32 noundef 0)
  %19 = load i32, ptr @hf_gsm_a_dtap_serv_cat_b3, align 4
  %20 = tail call ptr @proto_tree_add_item(ptr noundef %1, i32 noundef %19, ptr noundef %0, i32 noundef %3, i32 noundef 1, i32 noundef 0)
  %21 = load i32, ptr @hf_gsm_a_dtap_serv_cat_b2, align 4
  %22 = tail call ptr @proto_tree_add_item(ptr noundef %1, i32 noundef %21, ptr noundef %0, i32 noundef %3, i32 noundef 1, i32 noundef 0)
  %23 = load i32, ptr @hf_gsm_a_dtap_serv_cat_b1, align 4
  %24 = tail call ptr @proto_tree_add_item(ptr noundef %1, i32 noundef %23, ptr noundef %0, i32 noundef %3, i32 noundef 1, i32 noundef 0)
  %25 = trunc i32 %4 to i16
  ret i16 %25
}